; Function Attrs: nounwind uwtable
define ptr @dtgtk_drawing_area_new_with_height(i32 noundef %0) local_unnamed_addr #0 {
  %2 = load atomic i64, ptr @dtgtk_drawing_area_get_type.static_g_define_type_id seq_cst, align 8
  %.not.i = icmp eq i64 %2, 0
  br i1 %.not.i, label %3, label %dtgtk_drawing_area_get_type.exit

3:                                                ; preds = %1
  %4 = tail call i32 @g_once_init_enter(ptr noundef nonnull @dtgtk_drawing_area_get_type.static_g_define_type_id) #5
  %.not4.i = icmp eq i32 %4, 0
  br i1 %.not4.i, label %dtgtk_drawing_area_get_type.exit, label %5

5:                                                ; preds = %3
  %6 = tail call fastcc i64 @dtgtk_drawing_area_get_type_once()
  tail call void @g_once_init_leave(ptr noundef nonnull @dtgtk_drawing_area_get_type.static_g_define_type_id, i64 noundef %6) #5
  br label %dtgtk_drawing_area_get_type.exit

dtgtk_drawing_area_get_type.exit:                 ; preds = %1, %3, %5
  %7 = load i64, ptr @dtgtk_drawing_area_get_type.static_g_define_type_id, align 8, !tbaa !6
  %8 = tail call ptr (i64, ptr, ...) @g_object_new(i64 noundef %7, ptr noundef null) #5
  %9 = getelementptr inbounds nuw i8, ptr %8, i64 40
  store double 1.000000e+00, ptr %9, align 8, !tbaa !10
  %10 = getelementptr inbounds nuw i8, ptr %8, i64 48
  store i32 %0, ptr %10, align 8, !tbaa !22
  ret ptr %8
}